target datalayout = "e-m:e-p270:32:32-p271:32:32-p272:64:64-i64:64-i128:128-f80:128-n8:16:32:64-S128"
target triple = "x86_64-pc-linux-gnu"

%struct.tag_AlsaPcmInfo = type { ptr, ptr, ptr, i32, i32, i32, i64, i16, i16, ptr }

; Function Attrs: nounwind uwtable
define hidden i32 @setStartThresholdNoCommit(ptr noundef %0, i32 noundef %1) #0 {
  %3 = alloca i32, align 4
  %4 = alloca ptr, align 8
  %5 = alloca i32, align 4
  %6 = alloca i32, align 4
  %7 = alloca i32, align 4
  store ptr %0, ptr %4, align 8
  store i32 %1, ptr %5, align 4
  %8 = load i32, ptr %5, align 4
  %9 = icmp ne i32 %8, 0
  br i1 %9, label %10, label %11

10:                                               ; preds = %2
  store i32 1, ptr %7, align 4
  br label %12

11:                                               ; preds = %2
  store i32 2000000000, ptr %7, align 4
  br label %12

12:                                               ; preds = %11, %10
  %13 = load ptr, ptr %4, align 8
  %14 = getelementptr inbounds %struct.tag_AlsaPcmInfo, ptr %13, i32 0, i32 0
  %15 = load ptr, ptr %14, align 8
  %16 = load ptr, ptr %4, align 8
  %17 = getelementptr inbounds %struct.tag_AlsaPcmInfo, ptr %16, i32 0, i32 2
  %18 = load ptr, ptr %17, align 8
  %19 = load i32, ptr %7, align 4
  %20 = sext i32 %19 to i64
  %21 = call i32 @snd_pcm_sw_params_set_start_threshold(ptr noundef %15, ptr noundef %18, i64 noundef %20)
  store i32 %21, ptr %6, align 4
  %22 = load i32, ptr %6, align 4
  %23 = icmp slt i32 %22, 0
  br i1 %23, label %24, label %25

24:                                               ; preds = %12
  store i32 0, ptr %3, align 4
  br label %26

25:                                               ; preds = %12
  store i32 1, ptr %3, align 4
  br label %26

26:                                               ; preds = %25, %24
  %27 = load i32, ptr %3, align 4
  ret i32 %27
}

; Function Attrs: nounwind uwtable
define hidden i32 @setStartThreshold(ptr noundef %0, i32 noundef %1) #0 {
  %3 = alloca ptr, align 8
  %4 = alloca i32, align 4
  %5 = alloca i32, align 4
  store ptr %0, ptr %3, align 8
  store i32 %1, ptr %4, align 4
  store i32 0, ptr %5, align 4
  %6 = load ptr, ptr %3, align 8
  %7 = load i32, ptr %4, align 4
  %8 = call i32 @setStartThresholdNoCommit(ptr noundef %6, i32 noundef %7)
  %9 = icmp ne i32 %8, 0
  br i1 %9, label %11, label %10

10:                                               ; preds = %2
  store i32 -1, ptr %5, align 4
  br label %11

11:                                               ; preds = %10, %2
  %12 = load i32, ptr %5, align 4
  %13 = icmp eq i32 %12, 0
  br i1 %13, label %14, label %26

14:                                               ; preds = %11
  %15 = load ptr, ptr %3, align 8
  %16 = getelementptr inbounds %struct.tag_AlsaPcmInfo, ptr %15, i32 0, i32 0
  %17 = load ptr, ptr %16, align 8
  %18 = load ptr, ptr %3, align 8
  %19 = getelementptr inbounds %struct.tag_AlsaPcmInfo, ptr %18, i32 0, i32 2
  %20 = load ptr, ptr %19, align 8
  %21 = call i32 @snd_pcm_sw_params(ptr noundef %17, ptr noundef %20)
  store i32 %21, ptr %5, align 4
  %22 = load i32, ptr %5, align 4
  %23 = icmp slt i32 %22, 0
  br i1 %23, label %24, label %25

24:                                               ; preds = %14
  br label %25

25:                                               ; preds = %24, %14
  br label %26

26:                                               ; preds = %25, %11
  %27 = load i32, ptr %5, align 4
  %28 = icmp eq i32 %27, 0
  %29 = select i1 %28, i32 1, i32 0
  ret i32 %29
}

; Function Attrs: nounwind uwtable
define hidden i32 @DAUDIO_Start(ptr noundef %0, i32 noundef %1) #0 {
  %3 = alloca ptr, align 8
  %4 = alloca i32, align 4
  %5 = alloca ptr, align 8
  %6 = alloca i32, align 4
  %7 = alloca i32, align 4
  store ptr %0, ptr %3, align 8
  store i32 %1, ptr %4, align 4
  %8 = load ptr, ptr %3, align 8
  store ptr %8, ptr %5, align 8
  %9 = load ptr, ptr %5, align 8
  %10 = getelementptr inbounds %struct.tag_AlsaPcmInfo, ptr %9, i32 0, i32 0
  %11 = load ptr, ptr %10, align 8
  %12 = call i32 @snd_pcm_nonblock(ptr noundef %11, i32 noundef 0)
  %13 = load ptr, ptr %5, align 8
  %14 = call i32 @setStartThreshold(ptr noundef %13, i32 noundef 1)
  %15 = load ptr, ptr %5, align 8
  %16 = getelementptr inbounds %struct.tag_AlsaPcmInfo, ptr %15, i32 0, i32 0
  %17 = load ptr, ptr %16, align 8
  %18 = call i32 @snd_pcm_state(ptr noundef %17)
  store i32 %18, ptr %7, align 4
  %19 = load i32, ptr %7, align 4
  %20 = icmp eq i32 %19, 6
  br i1 %20, label %21, label %30

21:                                               ; preds = %2
  %22 = load ptr, ptr %5, align 8
  %23 = getelementptr inbounds %struct.tag_AlsaPcmInfo, ptr %22, i32 0, i32 0
  %24 = load ptr, ptr %23, align 8
  %25 = call i32 @snd_pcm_pause(ptr noundef %24, i32 noundef 0)
  store i32 %25, ptr %6, align 4
  %26 = load i32, ptr %6, align 4
  %27 = icmp ne i32 %26, 0
  br i1 %27, label %28, label %29

28:                                               ; preds = %21
  br label %29

29:                                               ; preds = %28, %21
  br label %30

30:                                               ; preds = %29, %2
  %31 = load i32, ptr %7, align 4
  %32 = icmp eq i32 %31, 7
  br i1 %32, label %33, label %49

33:                                               ; preds = %30
  %34 = load ptr, ptr %5, align 8
  %35 = getelementptr inbounds %struct.tag_AlsaPcmInfo, ptr %34, i32 0, i32 0
  %36 = load ptr, ptr %35, align 8
  %37 = call i32 @snd_pcm_resume(ptr noundef %36)
  store i32 %37, ptr %6, align 4
  %38 = load i32, ptr %6, align 4
  %39 = icmp slt i32 %38, 0
  br i1 %39, label %40, label %48

40:                                               ; preds = %33
  %41 = load i32, ptr %6, align 4
  %42 = icmp ne i32 %41, -11
  br i1 %42, label %43, label %47

43:                                               ; preds = %40
  %44 = load i32, ptr %6, align 4
  %45 = icmp ne i32 %44, -38
  br i1 %45, label %46, label %47

46:                                               ; preds = %43
  br label %47

47:                                               ; preds = %46, %43, %40
  br label %48

48:                                               ; preds = %47, %33
  br label %49

49:                                               ; preds = %48, %30
  %50 = load i32, ptr %7, align 4
  %51 = icmp eq i32 %50, 1
  br i1 %51, label %52, label %61

52:                                               ; preds = %49
  %53 = load ptr, ptr %5, align 8
  %54 = getelementptr inbounds %struct.tag_AlsaPcmInfo, ptr %53, i32 0, i32 0
  %55 = load ptr, ptr %54, align 8
  %56 = call i32 @snd_pcm_prepare(ptr noundef %55)
  store i32 %56, ptr %6, align 4
  %57 = load i32, ptr %6, align 4
  %58 = icmp slt i32 %57, 0
  br i1 %58, label %59, label %60

59:                                               ; preds = %52
  br label %60

60:                                               ; preds = %59, %52
  br label %61

61:                                               ; preds = %60, %49
  %62 = load ptr, ptr %5, align 8
  %63 = getelementptr inbounds %struct.tag_AlsaPcmInfo, ptr %62, i32 0, i32 0
  %64 = load ptr, ptr %63, align 8
  %65 = call i32 @snd_pcm_start(ptr noundef %64)
  store i32 %65, ptr %6, align 4
  %66 = load i32, ptr %6, align 4
  %67 = icmp ne i32 %66, 0
  br i1 %67, label %68, label %73

68:                                               ; preds = %61
  %69 = load i32, ptr %6, align 4
  %70 = icmp ne i32 %69, -32
  br i1 %70, label %71, label %72

71:                                               ; preds = %68
  br label %72

72:                                               ; preds = %71, %68
  br label %73

73:                                               ; preds = %72, %61
  %74 = load ptr, ptr %5, align 8
  %75 = getelementptr inbounds %struct.tag_AlsaPcmInfo, ptr %74, i32 0, i32 0
  %76 = load ptr, ptr %75, align 8
  %77 = call i32 @snd_pcm_nonblock(ptr noundef %76, i32 noundef 1)
  store i32 %77, ptr %6, align 4
  %78 = load i32, ptr %6, align 4
  %79 = icmp ne i32 %78, 0
  br i1 %79, label %80, label %81

80:                                               ; preds = %73
  br label %81

81:                                               ; preds = %80, %73
  %82 = load ptr, ptr %5, align 8
  %83 = getelementptr inbounds %struct.tag_AlsaPcmInfo, ptr %82, i32 0, i32 0
  %84 = load ptr, ptr %83, align 8
  %85 = call i32 @snd_pcm_state(ptr noundef %84)
  store i32 %85, ptr %7, align 4
  %86 = load i32, ptr %7, align 4
  %87 = icmp eq i32 %86, 2
  br i1 %87, label %97, label %88

88:                                               ; preds = %81
  %89 = load i32, ptr %7, align 4
  %90 = icmp eq i32 %89, 3
  br i1 %90, label %97, label %91

91:                                               ; preds = %88
  %92 = load i32, ptr %7, align 4
  %93 = icmp eq i32 %92, 4
  br i1 %93, label %97, label %94

94:                                               ; preds = %91
  %95 = load i32, ptr %7, align 4
  %96 = icmp eq i32 %95, 7
  br label %97

97:                                               ; preds = %94, %91, %88, %81
  %98 = phi i1 [ true, %91 ], [ true, %88 ], [ true, %81 ], [ %96, %94 ]
  %99 = zext i1 %98 to i32
  store i32 %99, ptr %6, align 4
  %100 = load i32, ptr %6, align 4
  %101 = icmp ne i32 %100, 0
  br i1 %101, label %102, label %111

102:                                              ; preds = %97
  %103 = load ptr, ptr %5, align 8
  %104 = getelementptr inbounds %struct.tag_AlsaPcmInfo, ptr %103, i32 0, i32 7
  store i16 1, ptr %104, align 8
  %105 = load i32, ptr %4, align 4
  %106 = icmp ne i32 %105, 0
  br i1 %106, label %110, label %107

107:                                              ; preds = %102
  %108 = load ptr, ptr %5, align 8
  %109 = getelementptr inbounds %struct.tag_AlsaPcmInfo, ptr %108, i32 0, i32 8
  store i16 0, ptr %109, align 2
  br label %110

110:                                              ; preds = %107, %102
  br label %111

111:                                              ; preds = %110, %97
  %112 = load i32, ptr %6, align 4
  %113 = icmp ne i32 %112, 0
  %114 = select i1 %113, i32 1, i32 0
  ret i32 %114
}