; Function Attrs: nounwind uwtable
define hidden range(i32 0, 2) i32 @DAUDIO_Start(ptr nocapture noundef %0, i32 noundef %1) local_unnamed_addr #0 {
  %3 = load ptr, ptr %0, align 8
  %4 = tail call i32 @snd_pcm_nonblock(ptr noundef %3, i32 noundef 0) #8
  %5 = load ptr, ptr %0, align 8
  %6 = getelementptr inbounds i8, ptr %0, i64 16
  %7 = load ptr, ptr %6, align 8
  %8 = tail call i32 @snd_pcm_sw_params_set_start_threshold(ptr noundef %5, ptr noundef %7, i64 noundef 1) #8
  %9 = icmp slt i32 %8, 0
  br i1 %9, label %setStartThreshold.exit, label %10

10:                                               ; preds = %2
  %11 = load ptr, ptr %0, align 8
  %12 = load ptr, ptr %6, align 8
  %13 = tail call i32 @snd_pcm_sw_params(ptr noundef %11, ptr noundef %12) #8
  br label %setStartThreshold.exit

setStartThreshold.exit:                           ; preds = %2, %10
  %14 = load ptr, ptr %0, align 8
  %15 = tail call i32 @snd_pcm_state(ptr noundef %14) #8
  switch i32 %15, label %25 [
    i32 6, label %16
    i32 7, label %19
    i32 1, label %22
  ]

16:                                               ; preds = %setStartThreshold.exit
  %17 = load ptr, ptr %0, align 8
  %18 = tail call i32 @snd_pcm_pause(ptr noundef %17, i32 noundef 0) #8
  br label %25

19:                                               ; preds = %setStartThreshold.exit
  %20 = load ptr, ptr %0, align 8
  %21 = tail call i32 @snd_pcm_resume(ptr noundef %20) #8
  br label %25

22:                                               ; preds = %setStartThreshold.exit
  %23 = load ptr, ptr %0, align 8
  %24 = tail call i32 @snd_pcm_prepare(ptr noundef %23) #8
  br label %25

25:                                               ; preds = %19, %16, %setStartThreshold.exit, %22
  %26 = load ptr, ptr %0, align 8
  %27 = tail call i32 @snd_pcm_start(ptr noundef %26) #8
  %28 = load ptr, ptr %0, align 8
  %29 = tail call i32 @snd_pcm_nonblock(ptr noundef %28, i32 noundef 1) #8
  %30 = load ptr, ptr %0, align 8
  %31 = tail call i32 @snd_pcm_state(ptr noundef %30) #8
  switch i32 %31, label %switch.edge [
    i32 4, label %32
    i32 3, label %32
    i32 2, label %32
    i32 7, label %32
  ]

32:                                               ; preds = %25, %25, %25, %25
  %33 = getelementptr inbounds i8, ptr %0, i64 48
  store i16 1, ptr %33, align 8
  %.not35 = icmp eq i32 %1, 0
  br i1 %.not35, label %34, label %switch.edge

34:                                               ; preds = %32
  %35 = getelementptr inbounds i8, ptr %0, i64 50
  store i16 0, ptr %35, align 2
  br label %switch.edge

switch.edge:                                      ; preds = %25, %32, %34
  %36 = phi i32 [ 1, %32 ], [ 1, %34 ], [ 0, %25 ]
  ret i32 %36
}